; Function Attrs: nounwind uwtable
define i32 @BN_mod_add(ptr noundef %0, ptr noundef %1, ptr noundef %2, ptr noundef %3, ptr noundef %4) local_unnamed_addr #0 {
  %6 = tail call i32 @BN_add(ptr noundef %0, ptr noundef %1, ptr noundef %2) #4
  %.not = icmp eq i32 %6, 0
  br i1 %.not, label %BN_nnmod.exit, label %7

7:                                                ; preds = %5
  %8 = icmp eq ptr %0, %3
  br i1 %8, label %9, label %10

9:                                                ; preds = %7
  tail call void @ERR_new() #4
  tail call void @ERR_set_debug(ptr noundef nonnull @.str, i32 noundef 22, ptr noundef nonnull @__func__.BN_nnmod) #4
  tail call void (i32, i32, ptr, ...) @ERR_set_error(i32 noundef 3, i32 noundef 524550, ptr noundef null) #4
  br label %BN_nnmod.exit

10:                                               ; preds = %7
  %11 = tail call i32 @BN_div(ptr noundef null, ptr noundef %0, ptr noundef %0, ptr noundef %3, ptr noundef %4) #4
  %.not.i = icmp eq i32 %11, 0
  br i1 %.not.i, label %BN_nnmod.exit, label %12

12:                                               ; preds = %10
  %13 = getelementptr inbounds nuw i8, ptr %0, i64 16
  %14 = load i32, ptr %13, align 8, !tbaa !3
  %.not13.i = icmp eq i32 %14, 0
  br i1 %.not13.i, label %BN_nnmod.exit, label %15

15:                                               ; preds = %12
  %16 = getelementptr inbounds nuw i8, ptr %3, i64 16
  %17 = load i32, ptr %16, align 8, !tbaa !3
  %.not14.i = icmp eq i32 %17, 0
  %18 = select i1 %.not14.i, ptr @BN_add, ptr @BN_sub
  %19 = tail call i32 %18(ptr noundef nonnull %0, ptr noundef nonnull %0, ptr noundef %3) #4, !callees !10
  br label %BN_nnmod.exit

BN_nnmod.exit:                                    ; preds = %15, %12, %10, %9, %5
  %.0 = phi i32 [ 0, %5 ], [ 0, %9 ], [ %19, %15 ], [ 0, %10 ], [ 1, %12 ]
  ret i32 %.0
}